; Function Attrs: mustprogress nofree norecurse nosync nounwind willreturn memory(argmem: readwrite) uwtable
define hidden void @Curl_pgrsResetTransferSizes(ptr noundef captures(none) initializes((2704, 2712), (2752, 2760)) %0) local_unnamed_addr #3 {
  %2 = getelementptr inbounds nuw i8, ptr %0, i64 2752
  %3 = getelementptr inbounds nuw i8, ptr %0, i64 2820
  store i64 0, ptr %2, align 8, !tbaa !80
  %4 = load i32, ptr %3, align 4, !tbaa !75
  %5 = getelementptr inbounds nuw i8, ptr %0, i64 2704
  store i64 0, ptr %5, align 8, !tbaa !82
  %6 = and i32 %4, -97
  store i32 %6, ptr %3, align 4, !tbaa !75
  ret void
}